target datalayout = "e-m:e-p270:32:32-p271:32:32-p272:64:64-i64:64-i128:128-f80:128-n8:16:32:64-S128"
target triple = "x86_64-pc-linux-gnu"

%struct.xcgroup_t = type { ptr, ptr, ptr, i32, i32, i32 }

@task_list = internal global ptr null, align 8
@int_cg = internal global [9 x %struct.xcgroup_t] zeroinitializer, align 16

; Function Attrs: nounwind uwtable
define dso_local zeroext i1 @cgroup_p_has_pid(i32 noundef %0) #0 {
  %2 = alloca i1, align 1
  %3 = alloca i32, align 4
  %4 = alloca ptr, align 8
  %5 = alloca ptr, align 8
  %6 = alloca i32, align 4
  %7 = alloca i32, align 4
  %8 = alloca i32, align 4
  store i32 %0, ptr %3, align 4
  call void @llvm.lifetime.start.p0(i64 8, ptr %4) #10
  call void @llvm.lifetime.start.p0(i64 8, ptr %5) #10
  store ptr null, ptr %5, align 8
  call void @llvm.lifetime.start.p0(i64 4, ptr %6) #10
  store i32 0, ptr %6, align 4
  call void @llvm.lifetime.start.p0(i64 4, ptr %7) #10
  %9 = load ptr, ptr @task_list, align 8
  %10 = call ptr @list_find_first(ptr noundef %9, ptr noundef @_find_pid_task, ptr noundef %3)
  store ptr %10, ptr %4, align 8
  %11 = load ptr, ptr %4, align 8
  %12 = icmp ne ptr %11, null
  br i1 %12, label %13, label %14

13:                                               ; preds = %1
  store i1 true, ptr %2, align 1
  store i32 1, ptr %8, align 4
  br label %37

14:                                               ; preds = %1
  %15 = call i32 @common_cgroup_get_pids(ptr noundef getelementptr inbounds ([9 x %struct.xcgroup_t], ptr @int_cg, i64 0, i64 5), ptr noundef %5, ptr noundef %6)
  %16 = icmp ne i32 %15, 0
  br i1 %16, label %17, label %18

17:                                               ; preds = %14
  store i1 false, ptr %2, align 1
  store i32 1, ptr %8, align 4
  br label %37

18:                                               ; preds = %14
  store i32 0, ptr %7, align 4
  br label %19

19:                                               ; preds = %33, %18
  %20 = load i32, ptr %7, align 4
  %21 = load i32, ptr %6, align 4
  %22 = icmp slt i32 %20, %21
  br i1 %22, label %23, label %36

23:                                               ; preds = %19
  %24 = load ptr, ptr %5, align 8
  %25 = load i32, ptr %7, align 4
  %26 = sext i32 %25 to i64
  %27 = getelementptr inbounds i32, ptr %24, i64 %26
  %28 = load i32, ptr %27, align 4
  %29 = load i32, ptr %3, align 4
  %30 = icmp eq i32 %28, %29
  br i1 %30, label %31, label %32

31:                                               ; preds = %23
  call void @slurm_xfree(ptr noundef %5)
  store i1 true, ptr %2, align 1
  store i32 1, ptr %8, align 4
  br label %37

32:                                               ; preds = %23
  br label %33

33:                                               ; preds = %32
  %34 = load i32, ptr %7, align 4
  %35 = add nsw i32 %34, 1
  store i32 %35, ptr %7, align 4
  br label %19, !llvm.loop !21

36:                                               ; preds = %19
  call void @slurm_xfree(ptr noundef %5)
  store i1 false, ptr %2, align 1
  store i32 1, ptr %8, align 4
  br label %37

37:                                               ; preds = %36, %31, %17, %13
  call void @llvm.lifetime.end.p0(i64 4, ptr %7) #10
  call void @llvm.lifetime.end.p0(i64 4, ptr %6) #10
  call void @llvm.lifetime.end.p0(i64 8, ptr %5) #10
  call void @llvm.lifetime.end.p0(i64 8, ptr %4) #10
  %38 = load i1, ptr %2, align 1
  ret i1 %38
}