; Function Attrs: nounwind uwtable
define dso_local noundef zeroext i1 @cgroup_p_has_pid(i32 noundef %0) local_unnamed_addr #0 {
  %2 = alloca i32, align 4
  %3 = alloca ptr, align 8
  %4 = alloca i32, align 4
  store i32 %0, ptr %2, align 4
  call void @llvm.lifetime.start.p0(i64 8, ptr nonnull %3) #17
  store ptr null, ptr %3, align 8
  call void @llvm.lifetime.start.p0(i64 4, ptr nonnull %4) #17
  store i32 0, ptr %4, align 4
  %5 = load ptr, ptr @task_list, align 8
  %6 = call ptr @list_find_first(ptr noundef %5, ptr noundef nonnull @_find_pid_task, ptr noundef nonnull %2) #17
  %.not = icmp eq ptr %6, null
  br i1 %.not, label %7, label %17

7:                                                ; preds = %1
  %8 = call i32 @common_cgroup_get_pids(ptr noundef nonnull getelementptr inbounds nuw (i8, ptr @int_cg, i64 200), ptr noundef nonnull %3, ptr noundef nonnull %4) #17
  %.not5 = icmp eq i32 %8, 0
  br i1 %.not5, label %.preheader, label %17

.preheader:                                       ; preds = %7
  %9 = load i32, ptr %4, align 4
  %10 = icmp sgt i32 %9, 0
  br i1 %10, label %.lr.ph, label %.sink.split

.lr.ph:                                           ; preds = %.preheader
  %11 = load ptr, ptr %3, align 8
  %12 = load i32, ptr %2, align 4
  %wide.trip.count = zext nneg i32 %9 to i64
  br label %13

13:                                               ; preds = %13, %.lr.ph
  %indvars.iv = phi i64 [ 0, %.lr.ph ], [ %indvars.iv.next, %13 ]
  %14 = getelementptr inbounds nuw i32, ptr %11, i64 %indvars.iv
  %15 = load i32, ptr %14, align 4
  %16 = icmp eq i32 %15, %12
  %indvars.iv.next = add nuw nsw i64 %indvars.iv, 1
  %exitcond.not = icmp eq i64 %indvars.iv.next, %wide.trip.count
  %or.cond = select i1 %16, i1 true, i1 %exitcond.not
  br i1 %or.cond, label %.sink.split, label %13, !llvm.loop !26

.sink.split:                                      ; preds = %13, %.preheader
  %.04.ph = phi i1 [ false, %.preheader ], [ %16, %13 ]
  call void @slurm_xfree(ptr noundef nonnull %3) #17
  br label %17

17:                                               ; preds = %.sink.split, %7, %1
  %.04 = phi i1 [ true, %1 ], [ false, %7 ], [ %.04.ph, %.sink.split ]
  call void @llvm.lifetime.end.p0(i64 4, ptr nonnull %4) #17
  call void @llvm.lifetime.end.p0(i64 8, ptr nonnull %3) #17
  ret i1 %.04
}